target datalayout = "e-m:e-p270:32:32-p271:32:32-p272:64:64-i64:64-i128:128-f80:128-n8:16:32:64-S128"
target triple = "x86_64-pc-linux-gnu"

; Function Attrs: mustprogress nounwind uwtable
define noundef zeroext i8 @_ZN32pxrInternal_v0_24__pxrReserved__12GfApplyGammaERKhd(ptr noundef nonnull align 1 dereferenceable(1) %0, double noundef %1) #0 {
  %3 = alloca ptr, align 8
  %4 = alloca double, align 8
  store ptr %0, ptr %3, align 8
  store double %1, ptr %4, align 8
  %5 = load ptr, ptr %3, align 8
  %6 = load i8, ptr %5, align 1
  %7 = zext i8 %6 to i32
  %8 = sitofp i32 %7 to double
  %9 = fdiv double %8, 2.550000e+02
  %10 = load double, ptr %4, align 8
  %11 = call double @pow(double noundef %9, double noundef %10) #6
  %12 = fmul double %11, 2.550000e+02
  %13 = fptoui double %12 to i8
  ret i8 %13
}