; Function Attrs: mustprogress nofree nounwind willreturn memory(write, argmem: readwrite) uwtable
define noundef zeroext i8 @_ZN32pxrInternal_v0_24__pxrReserved__12GfApplyGammaERKhd(ptr noundef nonnull readonly align 1 captures(none) dereferenceable(1) %0, double noundef %1) local_unnamed_addr #1 {
  %3 = load i8, ptr %0, align 1
  %4 = uitofp i8 %3 to double
  %5 = fdiv double %4, 2.550000e+02
  %6 = tail call double @pow(double noundef %5, double noundef %1) #8
  %7 = fmul double %6, 2.550000e+02
  %8 = fptoui double %7 to i8
  ret i8 %8
}